target datalayout = "e-m:e-p270:32:32-p271:32:32-p272:64:64-i64:64-i128:128-f80:128-n8:16:32:64-S128"
target triple = "x86_64-pc-linux-gnu"

; Function Attrs: nounwind uwtable
define ptr @X509V3_EXT_conf_nid(ptr noundef %0, ptr noundef %1, i32 noundef %2, ptr noundef %3) #0 {
  %5 = alloca ptr, align 8
  %6 = alloca ptr, align 8
  %7 = alloca ptr, align 8
  %8 = alloca i32, align 4
  %9 = alloca ptr, align 8
  %10 = alloca ptr, align 8
  %11 = alloca ptr, align 8
  %12 = alloca i32, align 4
  store ptr %0, ptr %6, align 8, !tbaa !77
  store ptr %1, ptr %7, align 8, !tbaa !8
  store i32 %2, ptr %8, align 4, !tbaa !12
  store ptr %3, ptr %9, align 8, !tbaa !10
  call void @llvm.lifetime.start.p0(i64 8, ptr %10) #5
  call void @llvm.lifetime.start.p0(i64 8, ptr %11) #5
  %13 = call ptr @NCONF_new(ptr noundef null)
  store ptr %13, ptr %10, align 8, !tbaa !3
  %14 = icmp eq ptr %13, null
  br i1 %14, label %15, label %16

15:                                               ; preds = %4
  store ptr null, ptr %5, align 8
  store i32 1, ptr %12, align 4
  br label %27

16:                                               ; preds = %4
  %17 = load ptr, ptr %10, align 8, !tbaa !3
  %18 = load ptr, ptr %6, align 8, !tbaa !77
  call void @CONF_set_nconf(ptr noundef %17, ptr noundef %18)
  %19 = load ptr, ptr %10, align 8, !tbaa !3
  %20 = load ptr, ptr %7, align 8, !tbaa !8
  %21 = load i32, ptr %8, align 4, !tbaa !12
  %22 = load ptr, ptr %9, align 8, !tbaa !10
  %23 = call ptr @X509V3_EXT_nconf_nid(ptr noundef %19, ptr noundef %20, i32 noundef %21, ptr noundef %22)
  store ptr %23, ptr %11, align 8, !tbaa !14
  %24 = load ptr, ptr %10, align 8, !tbaa !3
  call void @CONF_set_nconf(ptr noundef %24, ptr noundef null)
  %25 = load ptr, ptr %10, align 8, !tbaa !3
  call void @NCONF_free(ptr noundef %25)
  %26 = load ptr, ptr %11, align 8, !tbaa !14
  store ptr %26, ptr %5, align 8
  store i32 1, ptr %12, align 4
  br label %27

27:                                               ; preds = %16, %15
  call void @llvm.lifetime.end.p0(i64 8, ptr %11) #5
  call void @llvm.lifetime.end.p0(i64 8, ptr %10) #5
  %28 = load ptr, ptr %5, align 8
  ret ptr %28
}